target datalayout = "e-m:e-p270:32:32-p271:32:32-p272:64:64-i64:64-i128:128-f80:128-n8:16:32:64-S128"
target triple = "x86_64-pc-linux-gnu"

%struct.lua_State = type { %struct.GCRef, i8, i8, i8, i8, %struct.MRef, %struct.GCRef, ptr, ptr, %struct.MRef, %struct.MRef, %struct.GCRef, %struct.GCRef, ptr, i32 }
%struct.MRef = type { i64 }
%struct.GCRef = type { i64 }
%union.TValue = type { i64 }
%struct.GCstr = type { %struct.GCRef, i8, i8, i8, i8, i32, i32, i32 }
%struct.global_State = type { ptr, ptr, %struct.GCState, %struct.GCstr, i8, i8, i8, i8, %struct.StrInternState, i32, %struct.GCRef, %struct.SBuf, %union.TValue, %union.TValue, %struct.Node, %union.TValue, %struct.GCupval, i32, i32, ptr, ptr, ptr, i32, i32, %struct.GCRef, %struct.MRef, %struct.MRef, %struct.PRNGState, [39 x %struct.GCRef] }
%struct.GCState = type { i64, i64, i8, i8, i8, i8, i32, %struct.GCRef, %struct.MRef, %struct.GCRef, %struct.GCRef, %struct.GCRef, %struct.GCRef, i64, i64, i32, i32, %struct.MRef }
%struct.StrInternState = type { ptr, i32, i32, i32, i8, i8, i8, i8, i64 }
%struct.SBuf = type { ptr, ptr, ptr, %struct.MRef }
%struct.Node = type { %union.TValue, %union.TValue, %struct.MRef }
%struct.GCupval = type { %struct.GCRef, i8, i8, i8, i8, %union.anon, %struct.MRef, i32 }
%union.anon = type { %struct.anon.1 }
%struct.anon.1 = type { %struct.GCRef, %struct.GCRef }
%struct.PRNGState = type { [4 x i64] }

@.str.9 = private unnamed_addr constant [67 x i8] c"\04stop\07restart\07collect\05count\01\FF\04step\08setpause\0Asetstepmul\01\FF\09isrunning\00", align 1

; Function Attrs: alwaysinline nounwind uwtable
define internal void @setintV(ptr noundef %0, i32 noundef %1) #1 {
  %3 = alloca ptr, align 8
  %4 = alloca i32, align 4
  store ptr %0, ptr %3, align 8, !tbaa !17
  store i32 %1, ptr %4, align 4, !tbaa !29
  %5 = load i32, ptr %4, align 4, !tbaa !29
  %6 = sitofp i32 %5 to double
  %7 = load ptr, ptr %3, align 8, !tbaa !17
  store double %6, ptr %7, align 8, !tbaa !16
  ret void
}

; Function Attrs: nounwind uwtable
define internal i32 @lj_cf_collectgarbage(ptr noundef %0) #3 {
  %2 = alloca ptr, align 8
  %3 = alloca i32, align 4
  %4 = alloca i32, align 4
  %5 = alloca i32, align 4
  store ptr %0, ptr %2, align 8, !tbaa !4
  call void @llvm.lifetime.start.p0(i64 4, ptr %3) #11
  %6 = load ptr, ptr %2, align 8, !tbaa !4
  %7 = call i32 @lj_lib_checkopt(ptr noundef %6, i32 noundef 1, i32 noundef 2, ptr noundef @.str.9)
  store i32 %7, ptr %3, align 4, !tbaa !29
  call void @llvm.lifetime.start.p0(i64 4, ptr %4) #11
  %8 = load ptr, ptr %2, align 8, !tbaa !4
  %9 = call i32 @lj_lib_optint(ptr noundef %8, i32 noundef 2, i32 noundef 0)
  store i32 %9, ptr %4, align 4, !tbaa !29
  %10 = load i32, ptr %3, align 4, !tbaa !29
  %11 = icmp eq i32 %10, 3
  br i1 %11, label %12, label %26

12:                                               ; preds = %1
  %13 = load ptr, ptr %2, align 8, !tbaa !4
  %14 = getelementptr inbounds nuw %struct.lua_State, ptr %13, i32 0, i32 5
  %15 = getelementptr inbounds nuw %struct.MRef, ptr %14, i32 0, i32 0
  %16 = load i64, ptr %15, align 8, !tbaa !33
  %17 = inttoptr i64 %16 to ptr
  %18 = getelementptr inbounds nuw %struct.global_State, ptr %17, i32 0, i32 2
  %19 = getelementptr inbounds nuw %struct.GCState, ptr %18, i32 0, i32 0
  %20 = load i64, ptr %19, align 8, !tbaa !52
  %21 = uitofp i64 %20 to double
  %22 = fdiv double %21, 1.024000e+03
  %23 = load ptr, ptr %2, align 8, !tbaa !4
  %24 = getelementptr inbounds nuw %struct.lua_State, ptr %23, i32 0, i32 8
  %25 = load ptr, ptr %24, align 8, !tbaa !9
  store double %22, ptr %25, align 8, !tbaa !16
  br label %51

26:                                               ; preds = %1
  call void @llvm.lifetime.start.p0(i64 4, ptr %5) #11
  %27 = load ptr, ptr %2, align 8, !tbaa !4
  %28 = load i32, ptr %3, align 4, !tbaa !29
  %29 = load i32, ptr %4, align 4, !tbaa !29
  %30 = call i32 @lua_gc(ptr noundef %27, i32 noundef %28, i32 noundef %29)
  store i32 %30, ptr %5, align 4, !tbaa !29
  %31 = load i32, ptr %3, align 4, !tbaa !29
  %32 = icmp eq i32 %31, 5
  br i1 %32, label %36, label %33

33:                                               ; preds = %26
  %34 = load i32, ptr %3, align 4, !tbaa !29
  %35 = icmp eq i32 %34, 9
  br i1 %35, label %36, label %45

36:                                               ; preds = %33, %26
  %37 = load i32, ptr %5, align 4, !tbaa !29
  %38 = add nsw i32 %37, 1
  %39 = sext i32 %38 to i64
  %40 = shl i64 %39, 47
  %41 = xor i64 %40, -1
  %42 = load ptr, ptr %2, align 8, !tbaa !4
  %43 = getelementptr inbounds nuw %struct.lua_State, ptr %42, i32 0, i32 8
  %44 = load ptr, ptr %43, align 8, !tbaa !9
  store i64 %41, ptr %44, align 8, !tbaa !16
  br label %50

45:                                               ; preds = %33
  %46 = load ptr, ptr %2, align 8, !tbaa !4
  %47 = getelementptr inbounds nuw %struct.lua_State, ptr %46, i32 0, i32 8
  %48 = load ptr, ptr %47, align 8, !tbaa !9
  %49 = load i32, ptr %5, align 4, !tbaa !29
  call void @setintV(ptr noundef %48, i32 noundef %49)
  br label %50

50:                                               ; preds = %45, %36
  call void @llvm.lifetime.end.p0(i64 4, ptr %5) #11
  br label %51

51:                                               ; preds = %50, %12
  %52 = load ptr, ptr %2, align 8, !tbaa !4
  %53 = getelementptr inbounds nuw %struct.lua_State, ptr %52, i32 0, i32 8
  %54 = load ptr, ptr %53, align 8, !tbaa !9
  %55 = getelementptr inbounds nuw %union.TValue, ptr %54, i32 1
  store ptr %55, ptr %53, align 8, !tbaa !9
  call void @llvm.lifetime.end.p0(i64 4, ptr %4) #11
  call void @llvm.lifetime.end.p0(i64 4, ptr %3) #11
  ret i32 1
}