; Function Attrs: nounwind uwtable
define internal noundef i32 @lj_cf_collectgarbage(ptr noundef %0) #2 {
  %2 = tail call i32 @lj_lib_checkopt(ptr noundef %0, i32 noundef 1, i32 noundef 2, ptr noundef nonnull @.str.9) #11
  %3 = tail call i32 @lj_lib_optint(ptr noundef %0, i32 noundef 2, i32 noundef 0) #11
  %4 = icmp eq i32 %2, 3
  br i1 %4, label %5, label %15

5:                                                ; preds = %1
  %6 = getelementptr inbounds nuw i8, ptr %0, i64 16
  %7 = load i64, ptr %6, align 8, !tbaa !20
  %8 = inttoptr i64 %7 to ptr
  %9 = getelementptr inbounds nuw i8, ptr %8, i64 16
  %10 = load i64, ptr %9, align 8, !tbaa !55
  %11 = uitofp i64 %10 to double
  %12 = fmul double %11, 0x3F50000000000000
  %13 = getelementptr inbounds nuw i8, ptr %0, i64 40
  %14 = load ptr, ptr %13, align 8, !tbaa !4
  store double %12, ptr %14, align 8, !tbaa !14
  br label %28

15:                                               ; preds = %1
  %16 = tail call i32 @lua_gc(ptr noundef %0, i32 noundef %2, i32 noundef %3) #11
  switch i32 %2, label %24 [
    i32 9, label %17
    i32 5, label %17
  ]

17:                                               ; preds = %15, %15
  %18 = add nsw i32 %16, 1
  %19 = zext i32 %18 to i64
  %20 = shl i64 %19, 47
  %21 = xor i64 %20, -1
  %22 = getelementptr inbounds nuw i8, ptr %0, i64 40
  %23 = load ptr, ptr %22, align 8, !tbaa !4
  store i64 %21, ptr %23, align 8, !tbaa !14
  br label %28

24:                                               ; preds = %15
  %25 = getelementptr inbounds nuw i8, ptr %0, i64 40
  %26 = load ptr, ptr %25, align 8, !tbaa !4
  %27 = sitofp i32 %16 to double
  store double %27, ptr %26, align 8, !tbaa !14
  br label %28

28:                                               ; preds = %17, %24, %5
  %29 = getelementptr inbounds nuw i8, ptr %0, i64 40
  %30 = load ptr, ptr %29, align 8, !tbaa !4
  %31 = getelementptr inbounds nuw i8, ptr %30, i64 8
  store ptr %31, ptr %29, align 8, !tbaa !4
  ret i32 1
}